; Function Attrs: mustprogress uwtable
define void @_ZNK6casadi9Assertion8generateERNS_13CodeGeneratorERKSt6vectorIxSaIxEES7_(ptr noundef nonnull align 8 dereferenceable(96) %0, ptr noundef nonnull align 8 dereferenceable(3097) %1, ptr nocapture noundef nonnull readonly align 8 dereferenceable(24) %2, ptr nocapture noundef nonnull readonly align 8 dereferenceable(24) %3) unnamed_addr #3 align 2 personality ptr @__gxx_personality_v0 {
  %5 = alloca %"class.std::__cxx11::basic_string", align 8
  %6 = alloca %"class.std::__cxx11::basic_string", align 8
  %7 = alloca %"class.std::__cxx11::basic_string", align 8
  %8 = alloca %"class.std::__cxx11::basic_string", align 8
  %9 = tail call noundef nonnull align 8 dereferenceable(3097) ptr @_ZN6casadi13CodeGeneratorlsIPKcEERS0_T_(ptr noundef nonnull align 8 dereferenceable(3097) %1, ptr noundef nonnull @.str.9)
  %10 = load ptr, ptr %2, align 8
  %11 = getelementptr inbounds i8, ptr %10, i64 8
  %12 = load i64, ptr %11, align 8
  call void @_ZNK6casadi13CodeGenerator6workelB5cxx11Ex(ptr dead_on_unwind nonnull writable sret(%"class.std::__cxx11::basic_string") align 8 %5, ptr noundef nonnull align 8 dereferenceable(3097) %1, i64 noundef %12)
  %13 = invoke noundef nonnull align 8 dereferenceable(3097) ptr @_ZN6casadi13CodeGeneratorlsERKNSt7__cxx1112basic_stringIcSt11char_traitsIcESaIcEEE(ptr noundef nonnull align 8 dereferenceable(3097) %9, ptr noundef nonnull align 8 dereferenceable(32) %5)
          to label %14 unwind label %56

14:                                               ; preds = %4
  %15 = invoke noundef nonnull align 8 dereferenceable(3097) ptr @_ZN6casadi13CodeGeneratorlsIPKcEERS0_T_(ptr noundef nonnull align 8 dereferenceable(3097) %13, ptr noundef nonnull @.str.10)
          to label %16 unwind label %56

16:                                               ; preds = %14
  %17 = invoke noundef nonnull align 8 dereferenceable(3097) ptr @_ZN6casadi13CodeGeneratorlsIPKcEERS0_T_(ptr noundef nonnull align 8 dereferenceable(3097) %15, ptr noundef nonnull @.str.11)
          to label %18 unwind label %56

18:                                               ; preds = %16
  %19 = getelementptr inbounds i8, ptr %0, i64 64
  %20 = invoke noundef nonnull align 8 dereferenceable(3097) ptr @_ZN6casadi13CodeGeneratorlsERKNSt7__cxx1112basic_stringIcSt11char_traitsIcESaIcEEE(ptr noundef nonnull align 8 dereferenceable(3097) %17, ptr noundef nonnull align 8 dereferenceable(32) %19)
          to label %21 unwind label %56

21:                                               ; preds = %18
  %22 = invoke noundef nonnull align 8 dereferenceable(3097) ptr @_ZN6casadi13CodeGeneratorlsIPKcEERS0_T_(ptr noundef nonnull align 8 dereferenceable(3097) %20, ptr noundef nonnull @.str.12)
          to label %23 unwind label %56

23:                                               ; preds = %21
  %24 = invoke noundef nonnull align 8 dereferenceable(3097) ptr @_ZN6casadi13CodeGeneratorlsIPKcEERS0_T_(ptr noundef nonnull align 8 dereferenceable(3097) %22, ptr noundef nonnull @.str.13)
          to label %25 unwind label %56

25:                                               ; preds = %23
  %26 = invoke noundef nonnull align 8 dereferenceable(3097) ptr @_ZN6casadi13CodeGeneratorlsIPKcEERS0_T_(ptr noundef nonnull align 8 dereferenceable(3097) %24, ptr noundef nonnull @.str.14)
          to label %27 unwind label %56

27:                                               ; preds = %25
  call void @_ZNSt7__cxx1112basic_stringIcSt11char_traitsIcESaIcEED1Ev(ptr noundef nonnull align 8 dereferenceable(32) %5) #14
  %28 = load ptr, ptr %2, align 8
  %29 = load i64, ptr %28, align 8
  %30 = load ptr, ptr %3, align 8
  %31 = load i64, ptr %30, align 8
  %.not = icmp eq i64 %29, %31
  br i1 %.not, label %65, label %32

32:                                               ; preds = %27
  %33 = load ptr, ptr %0, align 8
  %34 = getelementptr inbounds i8, ptr %33, i64 352
  %35 = load ptr, ptr %34, align 8
  %36 = call noundef nonnull align 8 dereferenceable(8) ptr %35(ptr noundef nonnull align 8 dereferenceable(64) %0, i64 noundef 0)
  %37 = call noundef i64 @_ZNK6casadi8Sparsity3nnzEv(ptr noundef nonnull align 8 dereferenceable(8) %36)
  call void @_ZNK6casadi13CodeGenerator4workB5cxx11Exx(ptr dead_on_unwind nonnull writable sret(%"class.std::__cxx11::basic_string") align 8 %7, ptr noundef nonnull align 8 dereferenceable(3097) %1, i64 noundef %29, i64 noundef %37)
  %38 = load ptr, ptr %0, align 8
  %39 = getelementptr inbounds i8, ptr %38, i64 352
  %40 = load ptr, ptr %39, align 8
  %41 = invoke noundef nonnull align 8 dereferenceable(8) ptr %40(ptr noundef nonnull align 8 dereferenceable(64) %0, i64 noundef 0)
          to label %.noexc unwind label %58

.noexc:                                           ; preds = %32
  %42 = invoke noundef i64 @_ZNK6casadi8Sparsity3nnzEv(ptr noundef nonnull align 8 dereferenceable(8) %41)
          to label %_ZNK6casadi6MXNode3nnzEx.exit unwind label %58

_ZNK6casadi6MXNode3nnzEx.exit:                    ; preds = %.noexc
  %43 = load ptr, ptr %3, align 8
  %44 = load i64, ptr %43, align 8
  %45 = load ptr, ptr %0, align 8
  %46 = getelementptr inbounds i8, ptr %45, i64 352
  %47 = load ptr, ptr %46, align 8
  %48 = invoke noundef nonnull align 8 dereferenceable(8) ptr %47(ptr noundef nonnull align 8 dereferenceable(64) %0, i64 noundef 0)
          to label %.noexc20 unwind label %58

.noexc20:                                         ; preds = %_ZNK6casadi6MXNode3nnzEx.exit
  %49 = invoke noundef i64 @_ZNK6casadi8Sparsity3nnzEv(ptr noundef nonnull align 8 dereferenceable(8) %48)
          to label %_ZNK6casadi6MXNode3nnzEx.exit22 unwind label %58

_ZNK6casadi6MXNode3nnzEx.exit22:                  ; preds = %.noexc20
  invoke void @_ZNK6casadi13CodeGenerator4workB5cxx11Exx(ptr dead_on_unwind nonnull writable sret(%"class.std::__cxx11::basic_string") align 8 %8, ptr noundef nonnull align 8 dereferenceable(3097) %1, i64 noundef %44, i64 noundef %49)
          to label %50 unwind label %58

50:                                               ; preds = %_ZNK6casadi6MXNode3nnzEx.exit22
  invoke void @_ZN6casadi13CodeGenerator4copyERKNSt7__cxx1112basic_stringIcSt11char_traitsIcESaIcEEEmS8_(ptr dead_on_unwind nonnull writable sret(%"class.std::__cxx11::basic_string") align 8 %6, ptr noundef nonnull align 8 dereferenceable(3097) %1, ptr noundef nonnull align 8 dereferenceable(32) %7, i64 noundef %42, ptr noundef nonnull align 8 dereferenceable(32) %8)
          to label %51 unwind label %60

51:                                               ; preds = %50
  %52 = invoke noundef nonnull align 8 dereferenceable(3097) ptr @_ZN6casadi13CodeGeneratorlsERKNSt7__cxx1112basic_stringIcSt11char_traitsIcESaIcEEE(ptr noundef nonnull align 8 dereferenceable(3097) %1, ptr noundef nonnull align 8 dereferenceable(32) %6)
          to label %53 unwind label %62

53:                                               ; preds = %51
  %54 = invoke noundef nonnull align 8 dereferenceable(3097) ptr @_ZN6casadi13CodeGeneratorlsIcEERS0_T_(ptr noundef nonnull align 8 dereferenceable(3097) %52, i8 noundef signext 10)
          to label %55 unwind label %62

55:                                               ; preds = %53
  call void @_ZNSt7__cxx1112basic_stringIcSt11char_traitsIcESaIcEED1Ev(ptr noundef nonnull align 8 dereferenceable(32) %6) #14
  call void @_ZNSt7__cxx1112basic_stringIcSt11char_traitsIcESaIcEED1Ev(ptr noundef nonnull align 8 dereferenceable(32) %8) #14
  call void @_ZNSt7__cxx1112basic_stringIcSt11char_traitsIcESaIcEED1Ev(ptr noundef nonnull align 8 dereferenceable(32) %7) #14
  br label %65

56:                                               ; preds = %25, %23, %21, %18, %16, %14, %4
  %57 = landingpad { ptr, i32 }
          cleanup
  br label %66

58:                                               ; preds = %.noexc20, %_ZNK6casadi6MXNode3nnzEx.exit, %.noexc, %32, %_ZNK6casadi6MXNode3nnzEx.exit22
  %59 = landingpad { ptr, i32 }
          cleanup
  br label %66

60:                                               ; preds = %50
  %61 = landingpad { ptr, i32 }
          cleanup
  br label %64

62:                                               ; preds = %53, %51
  %63 = landingpad { ptr, i32 }
          cleanup
  call void @_ZNSt7__cxx1112basic_stringIcSt11char_traitsIcESaIcEED1Ev(ptr noundef nonnull align 8 dereferenceable(32) %6) #14
  br label %64

64:                                               ; preds = %62, %60
  %.pn = phi { ptr, i32 } [ %63, %62 ], [ %61, %60 ]
  call void @_ZNSt7__cxx1112basic_stringIcSt11char_traitsIcESaIcEED1Ev(ptr noundef nonnull align 8 dereferenceable(32) %8) #14
  br label %66

65:                                               ; preds = %55, %27
  ret void

66:                                               ; preds = %58, %64, %56
  %.sink = phi ptr [ %5, %56 ], [ %7, %64 ], [ %7, %58 ]
  %.pn.pn.pn = phi { ptr, i32 } [ %57, %56 ], [ %.pn, %64 ], [ %59, %58 ]
  call void @_ZNSt7__cxx1112basic_stringIcSt11char_traitsIcESaIcEED1Ev(ptr noundef nonnull align 8 dereferenceable(32) %.sink) #14
  resume { ptr, i32 } %.pn.pn.pn
}